target datalayout = "e-m:e-p270:32:32-p271:32:32-p272:64:64-i64:64-i128:128-f80:128-n8:16:32:64-S128"
target triple = "x86_64-pc-linux-gnu"

%struct.H5D_bt2_it_ud_t = type { ptr, ptr }

@.str.2 = private unnamed_addr constant [103 x i8] c"generated/home/dtcxzyw/WorkSpace/Projects/compilers/llvm-opt-benchmark/bench/hdf5/hdf5/src/H5Dbtree2.c\00", align 1
@H5E_DATASET_g = external global i64, align 8
@__func__.H5D__bt2_idx_iterate_cb = private unnamed_addr constant [24 x i8] c"H5D__bt2_idx_iterate_cb\00", align 1
@H5E_CALLBACK_g = external global i64, align 8
@.str.34 = private unnamed_addr constant [43 x i8] c"failure in generic chunk iterator callback\00", align 1

; Function Attrs: nounwind uwtable
define internal i32 @H5D__bt2_idx_iterate_cb(ptr noundef %0, ptr noundef %1) #0 {
  %3 = alloca ptr, align 8
  %4 = alloca ptr, align 8
  %5 = alloca ptr, align 8
  %6 = alloca ptr, align 8
  %7 = alloca i32, align 4
  store ptr %0, ptr %3, align 8
  store ptr %1, ptr %4, align 8
  %8 = load ptr, ptr %4, align 8
  store ptr %8, ptr %5, align 8
  %9 = load ptr, ptr %3, align 8
  store ptr %9, ptr %6, align 8
  store i32 -1, ptr %7, align 4
  %10 = load ptr, ptr %5, align 8
  %11 = getelementptr inbounds %struct.H5D_bt2_it_ud_t, ptr %10, i32 0, i32 0
  %12 = load ptr, ptr %11, align 8
  %13 = load ptr, ptr %6, align 8
  %14 = load ptr, ptr %5, align 8
  %15 = getelementptr inbounds %struct.H5D_bt2_it_ud_t, ptr %14, i32 0, i32 1
  %16 = load ptr, ptr %15, align 8
  %17 = call i32 %12(ptr noundef %13, ptr noundef %16)
  store i32 %17, ptr %7, align 4
  %18 = icmp slt i32 %17, 0
  br i1 %18, label %19, label %25

19:                                               ; preds = %2
  br label %20

20:                                               ; preds = %19
  %21 = load i64, ptr @H5E_DATASET_g, align 8
  %22 = load i64, ptr @H5E_CALLBACK_g, align 8
  %23 = call i32 (ptr, ptr, i32, i64, i64, ptr, ...) @H5E_printf_stack(ptr noundef @.str.2, ptr noundef @__func__.H5D__bt2_idx_iterate_cb, i32 noundef 1140, i64 noundef %21, i64 noundef %22, ptr noundef @.str.34)
  br label %24

24:                                               ; preds = %20
  br label %25

25:                                               ; preds = %24, %2
  %26 = load i32, ptr %7, align 4
  ret i32 %26
}