; Function Attrs: nounwind uwtable
define internal i32 @H5D__bt2_idx_iterate_cb(ptr noundef %0, ptr nocapture noundef readonly %1) #1 {
  %3 = load ptr, ptr %1, align 8
  %4 = getelementptr inbounds i8, ptr %1, i64 8
  %5 = load ptr, ptr %4, align 8
  %6 = tail call i32 %3(ptr noundef %0, ptr noundef %5) #14
  %7 = icmp slt i32 %6, 0
  br i1 %7, label %8, label %12

8:                                                ; preds = %2
  %9 = load i64, ptr @H5E_DATASET_g, align 8
  %10 = load i64, ptr @H5E_CALLBACK_g, align 8
  %11 = tail call i32 (ptr, ptr, i32, i64, i64, ptr, ...) @H5E_printf_stack(ptr noundef nonnull @.str.2, ptr noundef nonnull @__func__.H5D__bt2_idx_iterate_cb, i32 noundef 1140, i64 noundef %9, i64 noundef %10, ptr noundef nonnull @.str.34) #14
  br label %12

12:                                               ; preds = %8, %2
  ret i32 %6
}